; ModuleID = '/data/gpli/instruction-modeling/random_fi/rodinia/hotspot/hotspot.ll'
target datalayout = "e-p:64:64:64-i1:8:8-i8:8:8-i16:16:16-i32:32:32-i64:64:64-f32:32:32-f64:64:64-v64:64:64-v128:128:128-a0:0:64-s0:64:64-f80:128:128-f128:128:128-n8:16:32:64"
target triple = "x86_64-unknown-linux-gnu"

%struct._IO_FILE = type { i32, i8*, i8*, i8*, i8*, i8*, i8*, i8*, i8*, i8*, i8*, i8*, %struct._IO_marker*, %struct._IO_FILE*, i32, i32, i64, i16, i8, [1 x i8], i8*, i64, i8*, i8*, i8*, i8*, i64, i32, [20 x i8] }
%struct._IO_marker = type { %struct._IO_marker*, %struct._IO_FILE*, i32 }

@t_chip = unnamed_addr global double 5.000000e-04
@amb_temp = unnamed_addr global double 8.000000e+01
@chip_height = unnamed_addr global double 1.600000e-02
@chip_width = unnamed_addr global double 1.600000e-02
@stderr = external unnamed_addr global %struct._IO_FILE*
@.str = private unnamed_addr constant [87 x i8] c"Usage: %s <grid_rows> <grid_cols> <sim_time> <no. of threads><temp_file> <power_file>\0A\00", align 8
@.str1 = private unnamed_addr constant [63 x i8] c"\09<grid_rows>  - number of rows in the grid (positive integer)\0A\00", align 8
@.str2 = private unnamed_addr constant [66 x i8] c"\09<grid_cols>  - number of columns in the grid (positive integer)\0A\00", align 8
@.str3 = private unnamed_addr constant [38 x i8] c"\09<sim_time>   - number of iterations\0A\00", align 8
@.str4 = private unnamed_addr constant [41 x i8] c"\09<no. of threads>   - number of threads\0A\00", align 8
@.str5 = private unnamed_addr constant [89 x i8] c"\09<temp_file>  - name of the file containing the initial temperature values of each cell\0A\00", align 8
@.str6 = private unnamed_addr constant [86 x i8] c"\09<power_file> - name of the file containing the dissipated power values of each cell\0A\00", align 8
@.str7 = private unnamed_addr constant [11 x i8] c"error: %s\0A\00", align 1
@.str8 = private unnamed_addr constant [2 x i8] c"r\00", align 1
@.str9 = private unnamed_addr constant [37 x i8] c"file could not be opened for reading\00", align 8
@.str10 = private unnamed_addr constant [25 x i8] c"not enough lines in file\00", align 1
@.str11 = private unnamed_addr constant [4 x i8] c"%lf\00", align 1
@.str12 = private unnamed_addr constant [20 x i8] c"invalid file format\00", align 1
@num_omp_threads = unnamed_addr global i32 0
@.str13 = private unnamed_addr constant [26 x i8] c"unable to allocate memory\00", align 1
@.str14 = private unnamed_addr constant [42 x i8] c"Start computing the transient temperature\00", align 8
@.str15 = private unnamed_addr constant [18 x i8] c"Ending simulation\00", align 1
@stdout = external unnamed_addr global %struct._IO_FILE*
@.str16 = private unnamed_addr constant [21 x i8] c"Final Temperatures:\0A\00", align 1
@.str17 = private unnamed_addr constant [7 x i8] c"%d\09%g\0A\00", align 1

define void @_Z16single_iterationPdS_S_iiddddd(double* nocapture %result, double* %temp, double* nocapture %power, i32 %row, i32 %col, double %Cap, double %Rx, double %Ry, double %Rz, double %step) nounwind {
entry:
  %0 = icmp sgt i32 %row, 0, !llfi_index !0
  br i1 %0, label %bb23.preheader.lr.ph, label %return, !llfi_index !1

bb23.preheader.lr.ph:                             ; preds = %entry
  %1 = icmp sgt i32 %col, 0, !llfi_index !2
  %2 = fdiv double %step, %Cap, !llfi_index !3
  %3 = getelementptr inbounds double* %temp, i64 1, !llfi_index !4
  %4 = sext i32 %col to i64, !llfi_index !5
  %5 = getelementptr inbounds double* %temp, i64 %4, !llfi_index !6
  %6 = add nsw i32 %col, -1, !llfi_index !7
  %7 = add nsw i32 %row, -1, !llfi_index !8
  %tmp = zext i32 %col to i64, !llfi_index !9
  %tmp56 = sub i32 0, %col, !llfi_index !10
  %tmp80 = zext i32 %tmp56 to i64, !llfi_index !11
  br label %bb23.preheader, !llfi_index !12

bb1:                                              ; preds = %bb1.lr.ph, %bb22
  %indvar = phi i64 [ 0, %bb1.lr.ph ], [ %tmp61, %bb22 ], !llfi_index !13
  %tmp75 = add i64 %tmp74, %indvar, !llfi_index !14
  %tmp68 = trunc i64 %tmp75 to i32, !llfi_index !15
  %tmp78 = add i64 %tmp77, %indvar, !llfi_index !16
  %tmp65 = trunc i64 %tmp78 to i32, !llfi_index !17
  %tmp82 = add i64 %tmp81, %indvar, !llfi_index !18
  %tmp60 = trunc i64 %tmp82 to i32, !llfi_index !19
  %tmp84 = add i64 %tmp73, %indvar, !llfi_index !20
  %tmp55 = trunc i64 %tmp84 to i32, !llfi_index !21
  %tmp87 = add i64 %tmp86, %indvar, !llfi_index !22
  %tmp53 = trunc i64 %tmp87 to i32, !llfi_index !23
  %c.035 = trunc i64 %indvar to i32, !llfi_index !24
  %scevgep = getelementptr double* %temp, i64 %indvar, !llfi_index !25
  %scevgep43 = getelementptr double* %power, i64 %indvar, !llfi_index !26
  %tmp44 = add i64 %indvar, -1, !llfi_index !27
  %scevgep45 = getelementptr double* %temp, i64 %tmp44, !llfi_index !28
  %tmp46 = add i64 %tmp, %indvar, !llfi_index !29
  %tmp47 = trunc i64 %tmp46 to i32, !llfi_index !30
  %tmp61 = add i64 %indvar, 1, !llfi_index !31
  %scevgep62 = getelementptr double* %temp, i64 %tmp61, !llfi_index !32
  %8 = or i32 %c.035, %206, !llfi_index !33
  %9 = icmp eq i32 %8, 0, !llfi_index !34
  br i1 %9, label %bb2, label %bb3, !llfi_index !35

bb2:                                              ; preds = %bb1
  %10 = load double* %power, align 8, !llfi_index !36
  %11 = load double* %3, align 8, !llfi_index !37
  %12 = load double* %temp, align 8, !llfi_index !38
  %13 = fsub double %11, %12, !llfi_index !39
  %14 = fdiv double %13, %Rx, !llfi_index !40
  %15 = fadd double %10, %14, !llfi_index !41
  %16 = load double* %5, align 8, !llfi_index !42
  %17 = fsub double %16, %12, !llfi_index !43
  %18 = fdiv double %17, %Ry, !llfi_index !44
  %19 = fadd double %15, %18, !llfi_index !45
  %20 = load double* @amb_temp, align 8, !llfi_index !46
  %21 = fsub double %20, %12, !llfi_index !47
  %22 = fdiv double %21, %Rz, !llfi_index !48
  %23 = fadd double %19, %22, !llfi_index !49
  br label %bb22, !llfi_index !50

bb3:                                              ; preds = %bb1
  %24 = icmp eq i32 %6, %c.035, !llfi_index !51
  %or.cond = and i1 %207, %24, !llfi_index !52
  br i1 %or.cond, label %bb5, label %bb6, !llfi_index !53

bb5:                                              ; preds = %bb3
  %25 = load double* %scevgep43, align 8, !llfi_index !54
  %26 = load double* %scevgep45, align 8, !llfi_index !55
  %27 = load double* %scevgep, align 8, !llfi_index !56
  %28 = fsub double %26, %27, !llfi_index !57
  %29 = fdiv double %28, %Rx, !llfi_index !58
  %30 = fadd double %25, %29, !llfi_index !59
  %31 = sext i32 %tmp47 to i64, !llfi_index !60
  %32 = getelementptr inbounds double* %temp, i64 %31, !llfi_index !61
  %33 = load double* %32, align 8, !llfi_index !62
  %34 = fsub double %33, %27, !llfi_index !63
  %35 = fdiv double %34, %Ry, !llfi_index !64
  %36 = fadd double %30, %35, !llfi_index !65
  %37 = load double* @amb_temp, align 8, !llfi_index !66
  %38 = fsub double %37, %27, !llfi_index !67
  %39 = fdiv double %38, %Rz, !llfi_index !68
  %40 = fadd double %36, %39, !llfi_index !69
  br label %bb22, !llfi_index !70

bb6:                                              ; preds = %bb3
  br i1 %208, label %bb7, label %bb9.thread, !llfi_index !71

bb9.thread:                                       ; preds = %bb6
  %41 = icmp eq i32 %c.035, 0, !llfi_index !72
  br label %bb13, !llfi_index !73

bb7:                                              ; preds = %bb6
  %42 = icmp eq i32 %6, %c.035, !llfi_index !74
  br i1 %42, label %bb8, label %bb9, !llfi_index !75

bb8:                                              ; preds = %bb7
  %43 = sext i32 %tmp55 to i64, !llfi_index !76
  %44 = getelementptr inbounds double* %power, i64 %43, !llfi_index !77
  %45 = load double* %44, align 8, !llfi_index !78
  %46 = sext i32 %tmp53 to i64, !llfi_index !79
  %47 = getelementptr inbounds double* %temp, i64 %46, !llfi_index !80
  %48 = load double* %47, align 8, !llfi_index !81
  %49 = getelementptr inbounds double* %temp, i64 %43, !llfi_index !82
  %50 = load double* %49, align 8, !llfi_index !83
  %51 = fsub double %48, %50, !llfi_index !84
  %52 = fdiv double %51, %Rx, !llfi_index !85
  %53 = fadd double %45, %52, !llfi_index !86
  %54 = sext i32 %tmp60 to i64, !llfi_index !87
  %55 = getelementptr inbounds double* %temp, i64 %54, !llfi_index !88
  %56 = load double* %55, align 8, !llfi_index !89
  %57 = fsub double %56, %50, !llfi_index !90
  %58 = fdiv double %57, %Ry, !llfi_index !91
  %59 = fadd double %53, %58, !llfi_index !92
  %60 = load double* @amb_temp, align 8, !llfi_index !93
  %61 = fsub double %60, %50, !llfi_index !94
  %62 = fdiv double %61, %Rz, !llfi_index !95
  %63 = fadd double %59, %62, !llfi_index !96
  br label %bb22, !llfi_index !97

bb9:                                              ; preds = %bb7
  %64 = icmp eq i32 %c.035, 0, !llfi_index !98
  %65 = and i1 %208, %64, !llfi_index !99
  br i1 %65, label %bb12, label %bb13, !llfi_index !100

bb12:                                             ; preds = %bb9
  %66 = load double* %210, align 8, !llfi_index !101
  %67 = load double* %212, align 8, !llfi_index !102
  %68 = load double* %213, align 8, !llfi_index !103
  %69 = fsub double %67, %68, !llfi_index !104
  %70 = fdiv double %69, %Rx, !llfi_index !105
  %71 = fadd double %66, %70, !llfi_index !106
  %72 = load double* %215, align 8, !llfi_index !107
  %73 = fsub double %72, %68, !llfi_index !108
  %74 = fdiv double %73, %Ry, !llfi_index !109
  %75 = fadd double %71, %74, !llfi_index !110
  %76 = load double* @amb_temp, align 8, !llfi_index !111
  %77 = fsub double %76, %68, !llfi_index !112
  %78 = fdiv double %77, %Rz, !llfi_index !113
  %79 = fadd double %75, %78, !llfi_index !114
  br label %bb22, !llfi_index !115

bb13:                                             ; preds = %bb9, %bb9.thread
  %80 = phi i1 [ %41, %bb9.thread ], [ %64, %bb9 ], !llfi_index !116
  br i1 %207, label %bb14, label %bb15, !llfi_index !117

bb14:                                             ; preds = %bb13
  %81 = load double* %scevgep43, align 8, !llfi_index !118
  %82 = load double* %scevgep62, align 8, !llfi_index !119
  %83 = load double* %scevgep45, align 8, !llfi_index !120
  %84 = fadd double %82, %83, !llfi_index !121
  %85 = load double* %scevgep, align 8, !llfi_index !122
  %86 = fmul double %85, -2.000000e+00, !llfi_index !123
  %87 = fadd double %84, %86, !llfi_index !124
  %88 = fdiv double %87, %Rx, !llfi_index !125
  %89 = fadd double %81, %88, !llfi_index !126
  %90 = sext i32 %tmp47 to i64, !llfi_index !127
  %91 = getelementptr inbounds double* %temp, i64 %90, !llfi_index !128
  %92 = load double* %91, align 8, !llfi_index !129
  %93 = fsub double %92, %85, !llfi_index !130
  %94 = fdiv double %93, %Ry, !llfi_index !131
  %95 = fadd double %89, %94, !llfi_index !132
  %96 = load double* @amb_temp, align 8, !llfi_index !133
  %97 = fsub double %96, %85, !llfi_index !134
  %98 = fdiv double %97, %Rz, !llfi_index !135
  %99 = fadd double %95, %98, !llfi_index !136
  br label %bb22, !llfi_index !137

bb15:                                             ; preds = %bb13
  %100 = icmp eq i32 %6, %c.035, !llfi_index !138
  br i1 %100, label %bb16, label %bb17, !llfi_index !139

bb16:                                             ; preds = %bb15
  %101 = sext i32 %tmp55 to i64, !llfi_index !140
  %102 = getelementptr inbounds double* %power, i64 %101, !llfi_index !141
  %103 = load double* %102, align 8, !llfi_index !142
  %104 = sext i32 %tmp65 to i64, !llfi_index !143
  %105 = getelementptr inbounds double* %temp, i64 %104, !llfi_index !144
  %106 = load double* %105, align 8, !llfi_index !145
  %107 = sext i32 %tmp60 to i64, !llfi_index !146
  %108 = getelementptr inbounds double* %temp, i64 %107, !llfi_index !147
  %109 = load double* %108, align 8, !llfi_index !148
  %110 = fadd double %106, %109, !llfi_index !149
  %111 = getelementptr inbounds double* %temp, i64 %101, !llfi_index !150
  %112 = load double* %111, align 8, !llfi_index !151
  %113 = fmul double %112, -2.000000e+00, !llfi_index !152
  %114 = fadd double %110, %113, !llfi_index !153
  %115 = fdiv double %114, %Ry, !llfi_index !154
  %116 = fadd double %103, %115, !llfi_index !155
  %117 = sext i32 %tmp53 to i64, !llfi_index !156
  %118 = getelementptr inbounds double* %temp, i64 %117, !llfi_index !157
  %119 = load double* %118, align 8, !llfi_index !158
  %120 = fsub double %119, %112, !llfi_index !159
  %121 = fdiv double %120, %Rx, !llfi_index !160
  %122 = fadd double %116, %121, !llfi_index !161
  %123 = load double* @amb_temp, align 8, !llfi_index !162
  %124 = fsub double %123, %112, !llfi_index !163
  %125 = fdiv double %124, %Rz, !llfi_index !164
  %126 = fadd double %122, %125, !llfi_index !165
  br label %bb22, !llfi_index !166

bb17:                                             ; preds = %bb15
  br i1 %208, label %bb18, label %bb19, !llfi_index !167

bb18:                                             ; preds = %bb17
  %127 = sext i32 %tmp55 to i64, !llfi_index !168
  %128 = getelementptr inbounds double* %power, i64 %127, !llfi_index !169
  %129 = load double* %128, align 8, !llfi_index !170
  %130 = sext i32 %tmp68 to i64, !llfi_index !171
  %131 = getelementptr inbounds double* %temp, i64 %130, !llfi_index !172
  %132 = load double* %131, align 8, !llfi_index !173
  %133 = sext i32 %tmp53 to i64, !llfi_index !174
  %134 = getelementptr inbounds double* %temp, i64 %133, !llfi_index !175
  %135 = load double* %134, align 8, !llfi_index !176
  %136 = fadd double %132, %135, !llfi_index !177
  %137 = getelementptr inbounds double* %temp, i64 %127, !llfi_index !178
  %138 = load double* %137, align 8, !llfi_index !179
  %139 = fmul double %138, -2.000000e+00, !llfi_index !180
  %140 = fadd double %136, %139, !llfi_index !181
  %141 = fdiv double %140, %Rx, !llfi_index !182
  %142 = fadd double %129, %141, !llfi_index !183
  %143 = sext i32 %tmp60 to i64, !llfi_index !184
  %144 = getelementptr inbounds double* %temp, i64 %143, !llfi_index !185
  %145 = load double* %144, align 8, !llfi_index !186
  %146 = fsub double %145, %138, !llfi_index !187
  %147 = fdiv double %146, %Ry, !llfi_index !188
  %148 = fadd double %142, %147, !llfi_index !189
  %149 = load double* @amb_temp, align 8, !llfi_index !190
  %150 = fsub double %149, %138, !llfi_index !191
  %151 = fdiv double %150, %Rz, !llfi_index !192
  %152 = fadd double %148, %151, !llfi_index !193
  br label %bb22, !llfi_index !194

bb19:                                             ; preds = %bb17
  br i1 %80, label %bb20, label %bb21, !llfi_index !195

bb20:                                             ; preds = %bb19
  %153 = load double* %210, align 8, !llfi_index !196
  %154 = load double* %217, align 8, !llfi_index !197
  %155 = load double* %215, align 8, !llfi_index !198
  %156 = fadd double %154, %155, !llfi_index !199
  %157 = load double* %213, align 8, !llfi_index !200
  %158 = fmul double %157, -2.000000e+00, !llfi_index !201
  %159 = fadd double %156, %158, !llfi_index !202
  %160 = fdiv double %159, %Ry, !llfi_index !203
  %161 = fadd double %153, %160, !llfi_index !204
  %162 = load double* %212, align 8, !llfi_index !205
  %163 = fsub double %162, %157, !llfi_index !206
  %164 = fdiv double %163, %Rx, !llfi_index !207
  %165 = fadd double %161, %164, !llfi_index !208
  %166 = load double* @amb_temp, align 8, !llfi_index !209
  %167 = fsub double %166, %157, !llfi_index !210
  %168 = fdiv double %167, %Rz, !llfi_index !211
  %169 = fadd double %165, %168, !llfi_index !212
  br label %bb22, !llfi_index !213

bb21:                                             ; preds = %bb19
  %170 = sext i32 %tmp55 to i64, !llfi_index !214
  %171 = getelementptr inbounds double* %power, i64 %170, !llfi_index !215
  %172 = load double* %171, align 8, !llfi_index !216
  %173 = sext i32 %tmp65 to i64, !llfi_index !217
  %174 = getelementptr inbounds double* %temp, i64 %173, !llfi_index !218
  %175 = load double* %174, align 8, !llfi_index !219
  %176 = sext i32 %tmp60 to i64, !llfi_index !220
  %177 = getelementptr inbounds double* %temp, i64 %176, !llfi_index !221
  %178 = load double* %177, align 8, !llfi_index !222
  %179 = fadd double %175, %178, !llfi_index !223
  %180 = getelementptr inbounds double* %temp, i64 %170, !llfi_index !224
  %181 = load double* %180, align 8, !llfi_index !225
  %182 = fmul double %181, -2.000000e+00, !llfi_index !226
  %183 = fadd double %179, %182, !llfi_index !227
  %184 = fdiv double %183, %Ry, !llfi_index !228
  %185 = fadd double %172, %184, !llfi_index !229
  %186 = sext i32 %tmp68 to i64, !llfi_index !230
  %187 = getelementptr inbounds double* %temp, i64 %186, !llfi_index !231
  %188 = load double* %187, align 8, !llfi_index !232
  %189 = sext i32 %tmp53 to i64, !llfi_index !233
  %190 = getelementptr inbounds double* %temp, i64 %189, !llfi_index !234
  %191 = load double* %190, align 8, !llfi_index !235
  %192 = fadd double %188, %191, !llfi_index !236
  %193 = fadd double %192, %182, !llfi_index !237
  %194 = fdiv double %193, %Rx, !llfi_index !238
  %195 = fadd double %185, %194, !llfi_index !239
  %196 = load double* @amb_temp, align 8, !llfi_index !240
  %197 = fsub double %196, %181, !llfi_index !241
  %198 = fdiv double %197, %Rz, !llfi_index !242
  %199 = fadd double %195, %198, !llfi_index !243
  br label %bb22, !llfi_index !244

bb22:                                             ; preds = %bb21, %bb20, %bb18, %bb16, %bb14, %bb12, %bb8, %bb5, %bb2
  %.pn = phi double [ %23, %bb2 ], [ %79, %bb12 ], [ %99, %bb14 ], [ %126, %bb16 ], [ %152, %bb18 ], [ %169, %bb20 ], [ %199, %bb21 ], [ %63, %bb8 ], [ %40, %bb5 ], !llfi_index !245
  %delta.0 = fmul double %2, %.pn, !llfi_index !246
  %200 = sext i32 %tmp55 to i64, !llfi_index !247
  %201 = getelementptr inbounds double* %temp, i64 %200, !llfi_index !248
  %202 = load double* %201, align 8, !llfi_index !249
  %203 = fadd double %202, %delta.0, !llfi_index !250
  %204 = getelementptr inbounds double* %result, i64 %200, !llfi_index !251
  store double %203, double* %204, align 8, !llfi_index !252
  %exitcond41 = icmp eq i64 %tmp61, %tmp, !llfi_index !253
  br i1 %exitcond41, label %bb24, label %bb1, !llfi_index !254

bb24:                                             ; preds = %bb23.preheader, %bb22
  %205 = add nsw i32 %206, 1, !llfi_index !255
  %exitcond69 = icmp eq i32 %205, %row, !llfi_index !256
  %indvar.next71 = add i64 %indvar70, 1, !llfi_index !257
  br i1 %exitcond69, label %bb31.preheader, label %bb23.preheader, !llfi_index !258

bb23.preheader:                                   ; preds = %bb24, %bb23.preheader.lr.ph
  %indvar70 = phi i64 [ 0, %bb23.preheader.lr.ph ], [ %indvar.next71, %bb24 ], !llfi_index !259
  %206 = phi i32 [ 0, %bb23.preheader.lr.ph ], [ %205, %bb24 ], !llfi_index !260
  %tmp73 = mul i64 %tmp, %indvar70, !llfi_index !261
  %tmp74 = add i64 %tmp73, 1, !llfi_index !262
  %tmp77 = add i64 %tmp, %tmp73, !llfi_index !263
  %tmp81 = add i64 %tmp80, %tmp73, !llfi_index !264
  %tmp86 = add i64 %tmp73, 4294967295, !llfi_index !265
  br i1 %1, label %bb1.lr.ph, label %bb24, !llfi_index !266

bb1.lr.ph:                                        ; preds = %bb23.preheader
  %207 = icmp eq i32 %206, 0, !llfi_index !267
  %208 = icmp eq i32 %7, %206, !llfi_index !268
  %sext93 = shl i64 %tmp73, 32, !llfi_index !269
  %209 = ashr exact i64 %sext93, 32, !llfi_index !270
  %210 = getelementptr inbounds double* %power, i64 %209, !llfi_index !271
  %sext94 = shl i64 %tmp74, 32, !llfi_index !272
  %211 = ashr exact i64 %sext94, 32, !llfi_index !273
  %212 = getelementptr inbounds double* %temp, i64 %211, !llfi_index !274
  %213 = getelementptr inbounds double* %temp, i64 %209, !llfi_index !275
  %sext95 = shl i64 %tmp81, 32, !llfi_index !276
  %214 = ashr exact i64 %sext95, 32, !llfi_index !277
  %215 = getelementptr inbounds double* %temp, i64 %214, !llfi_index !278
  %sext = shl i64 %tmp77, 32, !llfi_index !279
  %216 = ashr exact i64 %sext, 32, !llfi_index !280
  %217 = getelementptr inbounds double* %temp, i64 %216, !llfi_index !281
  br label %bb1, !llfi_index !282

bb31.preheader:                                   ; preds = %bb24
  br i1 %0, label %bb29.preheader.lr.ph, label %return, !llfi_index !283

bb29.preheader.lr.ph:                             ; preds = %bb31.preheader
  %218 = icmp sgt i32 %col, 0, !llfi_index !284
  br label %bb29.preheader, !llfi_index !285

bb28:                                             ; preds = %bb29.preheader, %bb28
  %c.133 = phi i32 [ %223, %bb28 ], [ 0, %bb29.preheader ], !llfi_index !286
  %tmp37 = add i32 %tmp39, %c.133, !llfi_index !287
  %219 = sext i32 %tmp37 to i64, !llfi_index !288
  %220 = getelementptr inbounds double* %result, i64 %219, !llfi_index !289
  %221 = load double* %220, align 8, !llfi_index !290
  %222 = getelementptr inbounds double* %temp, i64 %219, !llfi_index !291
  store double %221, double* %222, align 8, !llfi_index !292
  %223 = add nsw i32 %c.133, 1, !llfi_index !293
  %exitcond = icmp eq i32 %223, %col, !llfi_index !294
  br i1 %exitcond, label %bb30, label %bb28, !llfi_index !295

bb30:                                             ; preds = %bb29.preheader, %bb28
  %224 = add nsw i32 %r.134, 1, !llfi_index !296
  %exitcond38 = icmp eq i32 %224, %row, !llfi_index !297
  br i1 %exitcond38, label %return, label %bb29.preheader, !llfi_index !298

bb29.preheader:                                   ; preds = %bb30, %bb29.preheader.lr.ph
  %r.134 = phi i32 [ 0, %bb29.preheader.lr.ph ], [ %224, %bb30 ], !llfi_index !299
  %tmp39 = mul i32 %r.134, %col, !llfi_index !300
  br i1 %218, label %bb28, label %bb30, !llfi_index !301

return:                                           ; preds = %bb30, %bb31.preheader, %entry
  ret void, !llfi_index !302
}

define void @_Z17compute_tran_tempPdiS_S_ii(double* nocapture %result, i32 %num_iterations, double* %temp, double* nocapture %power, i32 %row, i32 %col) nounwind {
entry:
  %0 = load double* @chip_height, align 8, !llfi_index !303
  %1 = sitofp i32 %row to double, !llfi_index !304
  %2 = fdiv double %0, %1, !llfi_index !305
  %3 = load double* @chip_width, align 8, !llfi_index !306
  %4 = sitofp i32 %col to double, !llfi_index !307
  %5 = fdiv double %3, %4, !llfi_index !308
  %6 = load double* @t_chip, align 8, !llfi_index !309
  %7 = fmul double %6, 8.750000e+05, !llfi_index !310
  %8 = fmul double %7, %5, !llfi_index !311
  %9 = fmul double %8, %2, !llfi_index !312
  %10 = fmul double %6, 2.000000e+02, !llfi_index !313
  %11 = fmul double %10, %2, !llfi_index !314
  %12 = fdiv double %5, %11, !llfi_index !315
  %13 = fmul double %10, %5, !llfi_index !316
  %14 = fdiv double %2, %13, !llfi_index !317
  %15 = fmul double %2, 1.000000e+02, !llfi_index !318
  %16 = fmul double %15, %5, !llfi_index !319
  %17 = fdiv double %6, %16, !llfi_index !320
  %18 = fmul double %6, 5.000000e-01, !llfi_index !321
  %19 = fmul double %18, 1.750000e+06, !llfi_index !322
  %20 = fdiv double 3.000000e+06, %19, !llfi_index !323
  %21 = fdiv double 1.000000e-03, %20, !llfi_index !324
  %22 = icmp sgt i32 %num_iterations, 0, !llfi_index !325
  br i1 %22, label %bb, label %return, !llfi_index !326

bb:                                               ; preds = %bb, %entry
  %i.03 = phi i32 [ %23, %bb ], [ 0, %entry ], !llfi_index !327
  tail call void @_Z16single_iterationPdS_S_iiddddd(double* %result, double* %temp, double* %power, i32 %row, i32 %col, double %9, double %12, double %14, double %17, double %21) nounwind, !llfi_index !328
  %23 = add nsw i32 %i.03, 1, !llfi_index !329
  %exitcond = icmp eq i32 %23, %num_iterations, !llfi_index !330
  br i1 %exitcond, label %return, label %bb, !llfi_index !331

return:                                           ; preds = %bb, %entry
  ret void, !llfi_index !332
}

define void @_Z5usageiPPc(i32 %argc, i8** nocapture %argv) nounwind {
entry:
  %0 = load i8** %argv, align 8, !llfi_index !333
  %1 = load %struct._IO_FILE** @stderr, align 8, !llfi_index !334
  %2 = tail call i32 (%struct._IO_FILE*, i8*, ...)* @fprintf(%struct._IO_FILE* noalias %1, i8* noalias getelementptr inbounds ([87 x i8]* @.str, i64 0, i64 0), i8* %0) nounwind, !llfi_index !335
  %3 = load %struct._IO_FILE** @stderr, align 8, !llfi_index !336
  %4 = tail call i64 @fwrite(i8* getelementptr inbounds ([63 x i8]* @.str1, i64 0, i64 0), i64 1, i64 62, %struct._IO_FILE* %3) nounwind, !llfi_index !337
  %5 = load %struct._IO_FILE** @stderr, align 8, !llfi_index !338
  %6 = tail call i64 @fwrite(i8* getelementptr inbounds ([66 x i8]* @.str2, i64 0, i64 0), i64 1, i64 65, %struct._IO_FILE* %5) nounwind, !llfi_index !339
  %7 = load %struct._IO_FILE** @stderr, align 8, !llfi_index !340
  %8 = tail call i64 @fwrite(i8* getelementptr inbounds ([38 x i8]* @.str3, i64 0, i64 0), i64 1, i64 37, %struct._IO_FILE* %7) nounwind, !llfi_index !341
  %9 = load %struct._IO_FILE** @stderr, align 8, !llfi_index !342
  %10 = tail call i64 @fwrite(i8* getelementptr inbounds ([41 x i8]* @.str4, i64 0, i64 0), i64 1, i64 40, %struct._IO_FILE* %9) nounwind, !llfi_index !343
  %11 = load %struct._IO_FILE** @stderr, align 8, !llfi_index !344
  %12 = tail call i64 @fwrite(i8* getelementptr inbounds ([89 x i8]* @.str5, i64 0, i64 0), i64 1, i64 88, %struct._IO_FILE* %11) nounwind, !llfi_index !345
  %13 = load %struct._IO_FILE** @stderr, align 8, !llfi_index !346
  %14 = tail call i64 @fwrite(i8* getelementptr inbounds ([86 x i8]* @.str6, i64 0, i64 0), i64 1, i64 85, %struct._IO_FILE* %13) nounwind, !llfi_index !347
  tail call void @exit(i32 1) noreturn nounwind, !llfi_index !348
  unreachable, !llfi_index !349
}

declare i32 @fprintf(%struct._IO_FILE* noalias nocapture, i8* noalias nocapture, ...) nounwind

declare i64 @fwrite(i8* nocapture, i64, i64, %struct._IO_FILE* nocapture) nounwind

declare void @exit(i32) noreturn nounwind

define void @_Z5fatalPc(i8* %s) nounwind {
entry:
  %0 = load %struct._IO_FILE** @stderr, align 8, !llfi_index !350
  %1 = tail call i32 (%struct._IO_FILE*, i8*, ...)* @fprintf(%struct._IO_FILE* noalias %0, i8* noalias getelementptr inbounds ([11 x i8]* @.str7, i64 0, i64 0), i8* %s) nounwind, !llfi_index !351
  tail call void @exit(i32 1) noreturn nounwind, !llfi_index !352
  unreachable, !llfi_index !353
}

define void @_Z10read_inputPdiiPc(double* nocapture %vect, i32 %grid_rows, i32 %grid_cols, i8* nocapture %file) nounwind {
entry:
  %str = alloca [256 x i8], align 1, !llfi_index !354
  %val = alloca double, align 8, !llfi_index !355
  %0 = call %struct._IO_FILE* @fopen(i8* noalias %file, i8* noalias getelementptr inbounds ([2 x i8]* @.str8, i64 0, i64 0)) nounwind, !llfi_index !356
  %1 = icmp eq %struct._IO_FILE* %0, null, !llfi_index !357
  br i1 %1, label %bb, label %bb8.preheader, !llfi_index !358

bb8.preheader:                                    ; preds = %entry
  %2 = mul nsw i32 %grid_cols, %grid_rows, !llfi_index !359
  %3 = getelementptr inbounds [256 x i8]* %str, i64 0, i64 0, !llfi_index !360
  br label %bb8, !llfi_index !361

bb:                                               ; preds = %entry
  %4 = load %struct._IO_FILE** @stderr, align 8, !llfi_index !362
  %5 = call i32 (%struct._IO_FILE*, i8*, ...)* @fprintf(%struct._IO_FILE* noalias %4, i8* noalias getelementptr inbounds ([11 x i8]* @.str7, i64 0, i64 0), i8* getelementptr inbounds ([37 x i8]* @.str9, i64 0, i64 0)) nounwind, !llfi_index !363
  call void @exit(i32 1) noreturn nounwind, !llfi_index !364
  unreachable, !llfi_index !365

bb2:                                              ; preds = %bb8
  %6 = call i8* @fgets(i8* noalias %3, i32 256, %struct._IO_FILE* noalias %0) nounwind, !llfi_index !366
  %7 = call i32 @feof(%struct._IO_FILE* %0) nounwind, !llfi_index !367
  %8 = icmp eq i32 %7, 0, !llfi_index !368
  br i1 %8, label %bb4, label %bb3, !llfi_index !369

bb3:                                              ; preds = %bb2
  %9 = load %struct._IO_FILE** @stderr, align 8, !llfi_index !370
  %10 = call i32 (%struct._IO_FILE*, i8*, ...)* @fprintf(%struct._IO_FILE* noalias %9, i8* noalias getelementptr inbounds ([11 x i8]* @.str7, i64 0, i64 0), i8* getelementptr inbounds ([25 x i8]* @.str10, i64 0, i64 0)) nounwind, !llfi_index !371
  call void @exit(i32 1) noreturn nounwind, !llfi_index !372
  unreachable, !llfi_index !373

bb4:                                              ; preds = %bb2
  %11 = call i32 (i8*, i8*, ...)* @sscanf(i8* noalias %3, i8* noalias getelementptr inbounds ([4 x i8]* @.str11, i64 0, i64 0), double* %val) nounwind, !llfi_index !374
  %12 = icmp eq i32 %11, 1, !llfi_index !375
  br i1 %12, label %bb7, label %bb6, !llfi_index !376

bb6:                                              ; preds = %bb4
  %13 = load %struct._IO_FILE** @stderr, align 8, !llfi_index !377
  %14 = call i32 (%struct._IO_FILE*, i8*, ...)* @fprintf(%struct._IO_FILE* noalias %13, i8* noalias getelementptr inbounds ([11 x i8]* @.str7, i64 0, i64 0), i8* getelementptr inbounds ([20 x i8]* @.str12, i64 0, i64 0)) nounwind, !llfi_index !378
  call void @exit(i32 1) noreturn nounwind, !llfi_index !379
  unreachable, !llfi_index !380

bb7:                                              ; preds = %bb4
  %15 = load double* %val, align 8, !llfi_index !381
  store double %15, double* %scevgep, align 8, !llfi_index !382
  %indvar.next = add i64 %indvar, 1, !llfi_index !383
  br label %bb8, !llfi_index !384

bb8:                                              ; preds = %bb7, %bb8.preheader
  %indvar = phi i64 [ 0, %bb8.preheader ], [ %indvar.next, %bb7 ], !llfi_index !385
  %scevgep = getelementptr double* %vect, i64 %indvar, !llfi_index !386
  %i.0 = trunc i64 %indvar to i32, !llfi_index !387
  %16 = icmp sgt i32 %2, %i.0, !llfi_index !388
  br i1 %16, label %bb2, label %bb9, !llfi_index !389

bb9:                                              ; preds = %bb8
  %17 = call i32 @fclose(%struct._IO_FILE* %0) nounwind, !llfi_index !390
  ret void, !llfi_index !391
}

declare noalias %struct._IO_FILE* @fopen(i8* noalias nocapture, i8* noalias nocapture) nounwind

declare i8* @fgets(i8* noalias, i32, %struct._IO_FILE* noalias nocapture) nounwind

declare i32 @feof(%struct._IO_FILE* nocapture) nounwind

declare i32 @sscanf(i8* noalias nocapture, i8* noalias nocapture, ...) nounwind

declare i32 @fclose(%struct._IO_FILE* nocapture) nounwind

define i32 @main(i32 %argc, i8** nocapture %argv) nounwind {
entry:
  %0 = icmp eq i32 %argc, 7, !llfi_index !392
  br i1 %0, label %bb1, label %bb, !llfi_index !393

bb:                                               ; preds = %entry
  tail call void @_Z5usageiPPc(i32 undef, i8** %argv) nounwind, !llfi_index !394
  br label %bb1, !llfi_index !395

bb1:                                              ; preds = %bb, %entry
  %1 = getelementptr inbounds i8** %argv, i64 1, !llfi_index !396
  %2 = load i8** %1, align 8, !llfi_index !397
  %3 = tail call i32 @atoi(i8* %2) nounwind readonly, !llfi_index !398
  %4 = icmp slt i32 %3, 1, !llfi_index !399
  br i1 %4, label %bb8, label %bb2, !llfi_index !400

bb2:                                              ; preds = %bb1
  %5 = getelementptr inbounds i8** %argv, i64 2, !llfi_index !401
  %6 = load i8** %5, align 8, !llfi_index !402
  %7 = tail call i32 @atoi(i8* %6) nounwind readonly, !llfi_index !403
  %8 = icmp slt i32 %7, 1, !llfi_index !404
  br i1 %8, label %bb8, label %bb3, !llfi_index !405

bb3:                                              ; preds = %bb2
  %9 = getelementptr inbounds i8** %argv, i64 3, !llfi_index !406
  %10 = load i8** %9, align 8, !llfi_index !407
  %11 = tail call i32 @atoi(i8* %10) nounwind readonly, !llfi_index !408
  %12 = icmp slt i32 %11, 1, !llfi_index !409
  br i1 %12, label %bb8, label %bb4, !llfi_index !410

bb4:                                              ; preds = %bb3
  %13 = getelementptr inbounds i8** %argv, i64 4, !llfi_index !411
  %14 = load i8** %13, align 8, !llfi_index !412
  %15 = tail call i32 @atoi(i8* %14) nounwind readonly, !llfi_index !413
  store i32 %15, i32* @num_omp_threads, align 4, !llfi_index !414
  %16 = icmp slt i32 %15, 1, !llfi_index !415
  br i1 %16, label %bb8, label %bb9, !llfi_index !416

bb8:                                              ; preds = %bb4, %bb3, %bb2, %bb1
  %grid_cols.1.ph = phi i32 [ %7, %bb4 ], [ %7, %bb3 ], [ %7, %bb2 ], [ undef, %bb1 ], !llfi_index !417
  %sim_time.1.ph = phi i32 [ %11, %bb4 ], [ %11, %bb3 ], [ undef, %bb2 ], [ undef, %bb1 ], !llfi_index !418
  tail call void @_Z5usageiPPc(i32 undef, i8** %argv) nounwind, !llfi_index !419
  br label %bb9, !llfi_index !420

bb9:                                              ; preds = %bb8, %bb4
  %sim_time.123 = phi i32 [ %sim_time.1.ph, %bb8 ], [ %11, %bb4 ], !llfi_index !421
  %grid_cols.119 = phi i32 [ %grid_cols.1.ph, %bb8 ], [ %7, %bb4 ], !llfi_index !422
  %17 = mul nsw i32 %grid_cols.119, %3, !llfi_index !423
  %18 = sext i32 %17 to i64, !llfi_index !424
  %19 = tail call noalias i8* @calloc(i64 %18, i64 8) nounwind, !llfi_index !425
  %20 = bitcast i8* %19 to double*, !llfi_index !426
  %21 = tail call noalias i8* @calloc(i64 %18, i64 8) nounwind, !llfi_index !427
  %22 = bitcast i8* %21 to double*, !llfi_index !428
  %23 = tail call noalias i8* @calloc(i64 %18, i64 8) nounwind, !llfi_index !429
  %24 = bitcast i8* %23 to double*, !llfi_index !430
  %25 = icmp eq i8* %19, null, !llfi_index !431
  %26 = icmp eq i8* %21, null, !llfi_index !432
  %27 = or i1 %25, %26, !llfi_index !433
  br i1 %27, label %bb13, label %bb14, !llfi_index !434

bb13:                                             ; preds = %bb9
  %28 = load %struct._IO_FILE** @stderr, align 8, !llfi_index !435
  %29 = tail call i32 (%struct._IO_FILE*, i8*, ...)* @fprintf(%struct._IO_FILE* noalias %28, i8* noalias getelementptr inbounds ([11 x i8]* @.str7, i64 0, i64 0), i8* getelementptr inbounds ([26 x i8]* @.str13, i64 0, i64 0)) nounwind, !llfi_index !436
  tail call void @exit(i32 1) noreturn nounwind, !llfi_index !437
  unreachable, !llfi_index !438

bb14:                                             ; preds = %bb9
  %30 = getelementptr inbounds i8** %argv, i64 5, !llfi_index !439
  %31 = load i8** %30, align 8, !llfi_index !440
  %32 = getelementptr inbounds i8** %argv, i64 6, !llfi_index !441
  %33 = load i8** %32, align 8, !llfi_index !442
  tail call void @_Z10read_inputPdiiPc(double* %20, i32 %3, i32 %grid_cols.119, i8* %31) nounwind, !llfi_index !443
  tail call void @_Z10read_inputPdiiPc(double* %22, i32 %3, i32 %grid_cols.119, i8* %33) nounwind, !llfi_index !444
  %34 = tail call i32 @puts(i8* getelementptr inbounds ([42 x i8]* @.str14, i64 0, i64 0)) nounwind, !llfi_index !445
  %35 = load double* @chip_height, align 8, !llfi_index !446
  %36 = sitofp i32 %3 to double, !llfi_index !447
  %37 = fdiv double %35, %36, !llfi_index !448
  %38 = load double* @chip_width, align 8, !llfi_index !449
  %39 = sitofp i32 %grid_cols.119 to double, !llfi_index !450
  %40 = fdiv double %38, %39, !llfi_index !451
  %41 = load double* @t_chip, align 8, !llfi_index !452
  %42 = fmul double %41, 8.750000e+05, !llfi_index !453
  %43 = fmul double %42, %40, !llfi_index !454
  %44 = fmul double %43, %37, !llfi_index !455
  %45 = fmul double %41, 2.000000e+02, !llfi_index !456
  %46 = fmul double %45, %37, !llfi_index !457
  %47 = fdiv double %40, %46, !llfi_index !458
  %48 = fmul double %45, %40, !llfi_index !459
  %49 = fdiv double %37, %48, !llfi_index !460
  %50 = fmul double %37, 1.000000e+02, !llfi_index !461
  %51 = fmul double %50, %40, !llfi_index !462
  %52 = fdiv double %41, %51, !llfi_index !463
  %53 = fmul double %41, 5.000000e-01, !llfi_index !464
  %54 = fmul double %53, 1.750000e+06, !llfi_index !465
  %55 = fdiv double 3.000000e+06, %54, !llfi_index !466
  %56 = fdiv double 1.000000e-03, %55, !llfi_index !467
  %57 = icmp sgt i32 %sim_time.123, 0, !llfi_index !468
  br i1 %57, label %bb.i, label %_Z17compute_tran_tempPdiS_S_ii.exit, !llfi_index !469

bb.i:                                             ; preds = %bb.i, %bb14
  %i.03.i = phi i32 [ %58, %bb.i ], [ 0, %bb14 ], !llfi_index !470
  tail call void @_Z16single_iterationPdS_S_iiddddd(double* %24, double* %20, double* %22, i32 %3, i32 %grid_cols.119, double %44, double %47, double %49, double %52, double %56) nounwind, !llfi_index !471
  %58 = add nsw i32 %i.03.i, 1, !llfi_index !472
  %exitcond30 = icmp eq i32 %58, %sim_time.123, !llfi_index !473
  br i1 %exitcond30, label %_Z17compute_tran_tempPdiS_S_ii.exit, label %bb.i, !llfi_index !474

_Z17compute_tran_tempPdiS_S_ii.exit:              ; preds = %bb.i, %bb14
  %59 = tail call i32 @puts(i8* getelementptr inbounds ([18 x i8]* @.str15, i64 0, i64 0)) nounwind, !llfi_index !475
  %60 = load %struct._IO_FILE** @stdout, align 8, !llfi_index !476
  %61 = tail call i64 @fwrite(i8* getelementptr inbounds ([21 x i8]* @.str16, i64 0, i64 0), i64 1, i64 20, %struct._IO_FILE* %60) nounwind, !llfi_index !477
  %62 = icmp sgt i32 %17, 0, !llfi_index !478
  br i1 %62, label %bb15.lr.ph, label %bb17, !llfi_index !479

bb15.lr.ph:                                       ; preds = %_Z17compute_tran_tempPdiS_S_ii.exit
  %tmp = mul i32 %3, %grid_cols.119, !llfi_index !480
  %tmp26 = zext i32 %tmp to i64, !llfi_index !481
  br label %bb15, !llfi_index !482

bb15:                                             ; preds = %bb15, %bb15.lr.ph
  %indvar = phi i64 [ 0, %bb15.lr.ph ], [ %indvar.next, %bb15 ], !llfi_index !483
  %tmp27 = shl i64 %indvar, 3, !llfi_index !484
  %scevgep = getelementptr i8* %19, i64 %tmp27, !llfi_index !485
  %scevgep28 = bitcast i8* %scevgep to double*, !llfi_index !486
  %i.025 = trunc i64 %indvar to i32, !llfi_index !487
  %63 = load double* %scevgep28, align 8, !llfi_index !488
  %64 = load %struct._IO_FILE** @stdout, align 8, !llfi_index !489
  %65 = tail call i32 (%struct._IO_FILE*, i8*, ...)* @fprintf(%struct._IO_FILE* noalias %64, i8* noalias getelementptr inbounds ([7 x i8]* @.str17, i64 0, i64 0), i32 %i.025, double %63) nounwind, !llfi_index !490
  %indvar.next = add i64 %indvar, 1, !llfi_index !491
  %exitcond = icmp eq i64 %indvar.next, %tmp26, !llfi_index !492
  br i1 %exitcond, label %bb17, label %bb15, !llfi_index !493

bb17:                                             ; preds = %bb15, %_Z17compute_tran_tempPdiS_S_ii.exit
  tail call void @free(i8* %19) nounwind, !llfi_index !494
  tail call void @free(i8* %21) nounwind, !llfi_index !495
  ret i32 0, !llfi_index !496
}

declare i32 @atoi(i8* nocapture) nounwind readonly

declare noalias i8* @calloc(i64, i64) nounwind

declare i32 @puts(i8* nocapture) nounwind

declare void @free(i8* nocapture) nounwind

!0 = metadata !{i64 0}
!1 = metadata !{i64 1}
!2 = metadata !{i64 2}
!3 = metadata !{i64 3}
!4 = metadata !{i64 4}
!5 = metadata !{i64 5}
!6 = metadata !{i64 6}
!7 = metadata !{i64 7}
!8 = metadata !{i64 8}
!9 = metadata !{i64 9}
!10 = metadata !{i64 10}
!11 = metadata !{i64 11}
!12 = metadata !{i64 12}
!13 = metadata !{i64 13}
!14 = metadata !{i64 14}
!15 = metadata !{i64 15}
!16 = metadata !{i64 16}
!17 = metadata !{i64 17}
!18 = metadata !{i64 18}
!19 = metadata !{i64 19}
!20 = metadata !{i64 20}
!21 = metadata !{i64 21}
!22 = metadata !{i64 22}
!23 = metadata !{i64 23}
!24 = metadata !{i64 24}
!25 = metadata !{i64 25}
!26 = metadata !{i64 26}
!27 = metadata !{i64 27}
!28 = metadata !{i64 28}
!29 = metadata !{i64 29}
!30 = metadata !{i64 30}
!31 = metadata !{i64 31}
!32 = metadata !{i64 32}
!33 = metadata !{i64 33}
!34 = metadata !{i64 34}
!35 = metadata !{i64 35}
!36 = metadata !{i64 36}
!37 = metadata !{i64 37}
!38 = metadata !{i64 38}
!39 = metadata !{i64 39}
!40 = metadata !{i64 40}
!41 = metadata !{i64 41}
!42 = metadata !{i64 42}
!43 = metadata !{i64 43}
!44 = metadata !{i64 44}
!45 = metadata !{i64 45}
!46 = metadata !{i64 46}
!47 = metadata !{i64 47}
!48 = metadata !{i64 48}
!49 = metadata !{i64 49}
!50 = metadata !{i64 50}
!51 = metadata !{i64 51}
!52 = metadata !{i64 52}
!53 = metadata !{i64 53}
!54 = metadata !{i64 54}
!55 = metadata !{i64 55}
!56 = metadata !{i64 56}
!57 = metadata !{i64 57}
!58 = metadata !{i64 58}
!59 = metadata !{i64 59}
!60 = metadata !{i64 60}
!61 = metadata !{i64 61}
!62 = metadata !{i64 62}
!63 = metadata !{i64 63}
!64 = metadata !{i64 64}
!65 = metadata !{i64 65}
!66 = metadata !{i64 66}
!67 = metadata !{i64 67}
!68 = metadata !{i64 68}
!69 = metadata !{i64 69}
!70 = metadata !{i64 70}
!71 = metadata !{i64 71}
!72 = metadata !{i64 72}
!73 = metadata !{i64 73}
!74 = metadata !{i64 74}
!75 = metadata !{i64 75}
!76 = metadata !{i64 76}
!77 = metadata !{i64 77}
!78 = metadata !{i64 78}
!79 = metadata !{i64 79}
!80 = metadata !{i64 80}
!81 = metadata !{i64 81}
!82 = metadata !{i64 82}
!83 = metadata !{i64 83}
!84 = metadata !{i64 84}
!85 = metadata !{i64 85}
!86 = metadata !{i64 86}
!87 = metadata !{i64 87}
!88 = metadata !{i64 88}
!89 = metadata !{i64 89}
!90 = metadata !{i64 90}
!91 = metadata !{i64 91}
!92 = metadata !{i64 92}
!93 = metadata !{i64 93}
!94 = metadata !{i64 94}
!95 = metadata !{i64 95}
!96 = metadata !{i64 96}
!97 = metadata !{i64 97}
!98 = metadata !{i64 98}
!99 = metadata !{i64 99}
!100 = metadata !{i64 100}
!101 = metadata !{i64 101}
!102 = metadata !{i64 102}
!103 = metadata !{i64 103}
!104 = metadata !{i64 104}
!105 = metadata !{i64 105}
!106 = metadata !{i64 106}
!107 = metadata !{i64 107}
!108 = metadata !{i64 108}
!109 = metadata !{i64 109}
!110 = metadata !{i64 110}
!111 = metadata !{i64 111}
!112 = metadata !{i64 112}
!113 = metadata !{i64 113}
!114 = metadata !{i64 114}
!115 = metadata !{i64 115}
!116 = metadata !{i64 116}
!117 = metadata !{i64 117}
!118 = metadata !{i64 118}
!119 = metadata !{i64 119}
!120 = metadata !{i64 120}
!121 = metadata !{i64 121}
!122 = metadata !{i64 122}
!123 = metadata !{i64 123}
!124 = metadata !{i64 124}
!125 = metadata !{i64 125}
!126 = metadata !{i64 126}
!127 = metadata !{i64 127}
!128 = metadata !{i64 128}
!129 = metadata !{i64 129}
!130 = metadata !{i64 130}
!131 = metadata !{i64 131}
!132 = metadata !{i64 132}
!133 = metadata !{i64 133}
!134 = metadata !{i64 134}
!135 = metadata !{i64 135}
!136 = metadata !{i64 136}
!137 = metadata !{i64 137}
!138 = metadata !{i64 138}
!139 = metadata !{i64 139}
!140 = metadata !{i64 140}
!141 = metadata !{i64 141}
!142 = metadata !{i64 142}
!143 = metadata !{i64 143}
!144 = metadata !{i64 144}
!145 = metadata !{i64 145}
!146 = metadata !{i64 146}
!147 = metadata !{i64 147}
!148 = metadata !{i64 148}
!149 = metadata !{i64 149}
!150 = metadata !{i64 150}
!151 = metadata !{i64 151}
!152 = metadata !{i64 152}
!153 = metadata !{i64 153}
!154 = metadata !{i64 154}
!155 = metadata !{i64 155}
!156 = metadata !{i64 156}
!157 = metadata !{i64 157}
!158 = metadata !{i64 158}
!159 = metadata !{i64 159}
!160 = metadata !{i64 160}
!161 = metadata !{i64 161}
!162 = metadata !{i64 162}
!163 = metadata !{i64 163}
!164 = metadata !{i64 164}
!165 = metadata !{i64 165}
!166 = metadata !{i64 166}
!167 = metadata !{i64 167}
!168 = metadata !{i64 168}
!169 = metadata !{i64 169}
!170 = metadata !{i64 170}
!171 = metadata !{i64 171}
!172 = metadata !{i64 172}
!173 = metadata !{i64 173}
!174 = metadata !{i64 174}
!175 = metadata !{i64 175}
!176 = metadata !{i64 176}
!177 = metadata !{i64 177}
!178 = metadata !{i64 178}
!179 = metadata !{i64 179}
!180 = metadata !{i64 180}
!181 = metadata !{i64 181}
!182 = metadata !{i64 182}
!183 = metadata !{i64 183}
!184 = metadata !{i64 184}
!185 = metadata !{i64 185}
!186 = metadata !{i64 186}
!187 = metadata !{i64 187}
!188 = metadata !{i64 188}
!189 = metadata !{i64 189}
!190 = metadata !{i64 190}
!191 = metadata !{i64 191}
!192 = metadata !{i64 192}
!193 = metadata !{i64 193}
!194 = metadata !{i64 194}
!195 = metadata !{i64 195}
!196 = metadata !{i64 196}
!197 = metadata !{i64 197}
!198 = metadata !{i64 198}
!199 = metadata !{i64 199}
!200 = metadata !{i64 200}
!201 = metadata !{i64 201}
!202 = metadata !{i64 202}
!203 = metadata !{i64 203}
!204 = metadata !{i64 204}
!205 = metadata !{i64 205}
!206 = metadata !{i64 206}
!207 = metadata !{i64 207}
!208 = metadata !{i64 208}
!209 = metadata !{i64 209}
!210 = metadata !{i64 210}
!211 = metadata !{i64 211}
!212 = metadata !{i64 212}
!213 = metadata !{i64 213}
!214 = metadata !{i64 214}
!215 = metadata !{i64 215}
!216 = metadata !{i64 216}
!217 = metadata !{i64 217}
!218 = metadata !{i64 218}
!219 = metadata !{i64 219}
!220 = metadata !{i64 220}
!221 = metadata !{i64 221}
!222 = metadata !{i64 222}
!223 = metadata !{i64 223}
!224 = metadata !{i64 224}
!225 = metadata !{i64 225}
!226 = metadata !{i64 226}
!227 = metadata !{i64 227}
!228 = metadata !{i64 228}
!229 = metadata !{i64 229}
!230 = metadata !{i64 230}
!231 = metadata !{i64 231}
!232 = metadata !{i64 232}
!233 = metadata !{i64 233}
!234 = metadata !{i64 234}
!235 = metadata !{i64 235}
!236 = metadata !{i64 236}
!237 = metadata !{i64 237}
!238 = metadata !{i64 238}
!239 = metadata !{i64 239}
!240 = metadata !{i64 240}
!241 = metadata !{i64 241}
!242 = metadata !{i64 242}
!243 = metadata !{i64 243}
!244 = metadata !{i64 244}
!245 = metadata !{i64 245}
!246 = metadata !{i64 246}
!247 = metadata !{i64 247}
!248 = metadata !{i64 248}
!249 = metadata !{i64 249}
!250 = metadata !{i64 250}
!251 = metadata !{i64 251}
!252 = metadata !{i64 252}
!253 = metadata !{i64 253}
!254 = metadata !{i64 254}
!255 = metadata !{i64 255}
!256 = metadata !{i64 256}
!257 = metadata !{i64 257}
!258 = metadata !{i64 258}
!259 = metadata !{i64 259}
!260 = metadata !{i64 260}
!261 = metadata !{i64 261}
!262 = metadata !{i64 262}
!263 = metadata !{i64 263}
!264 = metadata !{i64 264}
!265 = metadata !{i64 265}
!266 = metadata !{i64 266}
!267 = metadata !{i64 267}
!268 = metadata !{i64 268}
!269 = metadata !{i64 269}
!270 = metadata !{i64 270}
!271 = metadata !{i64 271}
!272 = metadata !{i64 272}
!273 = metadata !{i64 273}
!274 = metadata !{i64 274}
!275 = metadata !{i64 275}
!276 = metadata !{i64 276}
!277 = metadata !{i64 277}
!278 = metadata !{i64 278}
!279 = metadata !{i64 279}
!280 = metadata !{i64 280}
!281 = metadata !{i64 281}
!282 = metadata !{i64 282}
!283 = metadata !{i64 283}
!284 = metadata !{i64 284}
!285 = metadata !{i64 285}
!286 = metadata !{i64 286}
!287 = metadata !{i64 287}
!288 = metadata !{i64 288}
!289 = metadata !{i64 289}
!290 = metadata !{i64 290}
!291 = metadata !{i64 291}
!292 = metadata !{i64 292}
!293 = metadata !{i64 293}
!294 = metadata !{i64 294}
!295 = metadata !{i64 295}
!296 = metadata !{i64 296}
!297 = metadata !{i64 297}
!298 = metadata !{i64 298}
!299 = metadata !{i64 299}
!300 = metadata !{i64 300}
!301 = metadata !{i64 301}
!302 = metadata !{i64 302}
!303 = metadata !{i64 303}
!304 = metadata !{i64 304}
!305 = metadata !{i64 305}
!306 = metadata !{i64 306}
!307 = metadata !{i64 307}
!308 = metadata !{i64 308}
!309 = metadata !{i64 309}
!310 = metadata !{i64 310}
!311 = metadata !{i64 311}
!312 = metadata !{i64 312}
!313 = metadata !{i64 313}
!314 = metadata !{i64 314}
!315 = metadata !{i64 315}
!316 = metadata !{i64 316}
!317 = metadata !{i64 317}
!318 = metadata !{i64 318}
!319 = metadata !{i64 319}
!320 = metadata !{i64 320}
!321 = metadata !{i64 321}
!322 = metadata !{i64 322}
!323 = metadata !{i64 323}
!324 = metadata !{i64 324}
!325 = metadata !{i64 325}
!326 = metadata !{i64 326}
!327 = metadata !{i64 327}
!328 = metadata !{i64 328}
!329 = metadata !{i64 329}
!330 = metadata !{i64 330}
!331 = metadata !{i64 331}
!332 = metadata !{i64 332}
!333 = metadata !{i64 333}
!334 = metadata !{i64 334}
!335 = metadata !{i64 335}
!336 = metadata !{i64 336}
!337 = metadata !{i64 337}
!338 = metadata !{i64 338}
!339 = metadata !{i64 339}
!340 = metadata !{i64 340}
!341 = metadata !{i64 341}
!342 = metadata !{i64 342}
!343 = metadata !{i64 343}
!344 = metadata !{i64 344}
!345 = metadata !{i64 345}
!346 = metadata !{i64 346}
!347 = metadata !{i64 347}
!348 = metadata !{i64 348}
!349 = metadata !{i64 349}
!350 = metadata !{i64 350}
!351 = metadata !{i64 351}
!352 = metadata !{i64 352}
!353 = metadata !{i64 353}
!354 = metadata !{i64 354}
!355 = metadata !{i64 355}
!356 = metadata !{i64 356}
!357 = metadata !{i64 357}
!358 = metadata !{i64 358}
!359 = metadata !{i64 359}
!360 = metadata !{i64 360}
!361 = metadata !{i64 361}
!362 = metadata !{i64 362}
!363 = metadata !{i64 363}
!364 = metadata !{i64 364}
!365 = metadata !{i64 365}
!366 = metadata !{i64 366}
!367 = metadata !{i64 367}
!368 = metadata !{i64 368}
!369 = metadata !{i64 369}
!370 = metadata !{i64 370}
!371 = metadata !{i64 371}
!372 = metadata !{i64 372}
!373 = metadata !{i64 373}
!374 = metadata !{i64 374}
!375 = metadata !{i64 375}
!376 = metadata !{i64 376}
!377 = metadata !{i64 377}
!378 = metadata !{i64 378}
!379 = metadata !{i64 379}
!380 = metadata !{i64 380}
!381 = metadata !{i64 381}
!382 = metadata !{i64 382}
!383 = metadata !{i64 383}
!384 = metadata !{i64 384}
!385 = metadata !{i64 385}
!386 = metadata !{i64 386}
!387 = metadata !{i64 387}
!388 = metadata !{i64 388}
!389 = metadata !{i64 389}
!390 = metadata !{i64 390}
!391 = metadata !{i64 391}
!392 = metadata !{i64 392}
!393 = metadata !{i64 393}
!394 = metadata !{i64 394}
!395 = metadata !{i64 395}
!396 = metadata !{i64 396}
!397 = metadata !{i64 397}
!398 = metadata !{i64 398}
!399 = metadata !{i64 399}
!400 = metadata !{i64 400}
!401 = metadata !{i64 401}
!402 = metadata !{i64 402}
!403 = metadata !{i64 403}
!404 = metadata !{i64 404}
!405 = metadata !{i64 405}
!406 = metadata !{i64 406}
!407 = metadata !{i64 407}
!408 = metadata !{i64 408}
!409 = metadata !{i64 409}
!410 = metadata !{i64 410}
!411 = metadata !{i64 411}
!412 = metadata !{i64 412}
!413 = metadata !{i64 413}
!414 = metadata !{i64 414}
!415 = metadata !{i64 415}
!416 = metadata !{i64 416}
!417 = metadata !{i64 417}
!418 = metadata !{i64 418}
!419 = metadata !{i64 419}
!420 = metadata !{i64 420}
!421 = metadata !{i64 421}
!422 = metadata !{i64 422}
!423 = metadata !{i64 423}
!424 = metadata !{i64 424}
!425 = metadata !{i64 425}
!426 = metadata !{i64 426}
!427 = metadata !{i64 427}
!428 = metadata !{i64 428}
!429 = metadata !{i64 429}
!430 = metadata !{i64 430}
!431 = metadata !{i64 431}
!432 = metadata !{i64 432}
!433 = metadata !{i64 433}
!434 = metadata !{i64 434}
!435 = metadata !{i64 435}
!436 = metadata !{i64 436}
!437 = metadata !{i64 437}
!438 = metadata !{i64 438}
!439 = metadata !{i64 439}
!440 = metadata !{i64 440}
!441 = metadata !{i64 441}
!442 = metadata !{i64 442}
!443 = metadata !{i64 443}
!444 = metadata !{i64 444}
!445 = metadata !{i64 445}
!446 = metadata !{i64 446}
!447 = metadata !{i64 447}
!448 = metadata !{i64 448}
!449 = metadata !{i64 449}
!450 = metadata !{i64 450}
!451 = metadata !{i64 451}
!452 = metadata !{i64 452}
!453 = metadata !{i64 453}
!454 = metadata !{i64 454}
!455 = metadata !{i64 455}
!456 = metadata !{i64 456}
!457 = metadata !{i64 457}
!458 = metadata !{i64 458}
!459 = metadata !{i64 459}
!460 = metadata !{i64 460}
!461 = metadata !{i64 461}
!462 = metadata !{i64 462}
!463 = metadata !{i64 463}
!464 = metadata !{i64 464}
!465 = metadata !{i64 465}
!466 = metadata !{i64 466}
!467 = metadata !{i64 467}
!468 = metadata !{i64 468}
!469 = metadata !{i64 469}
!470 = metadata !{i64 470}
!471 = metadata !{i64 471}
!472 = metadata !{i64 472}
!473 = metadata !{i64 473}
!474 = metadata !{i64 474}
!475 = metadata !{i64 475}
!476 = metadata !{i64 476}
!477 = metadata !{i64 477}
!478 = metadata !{i64 478}
!479 = metadata !{i64 479}
!480 = metadata !{i64 480}
!481 = metadata !{i64 481}
!482 = metadata !{i64 482}
!483 = metadata !{i64 483}
!484 = metadata !{i64 484}
!485 = metadata !{i64 485}
!486 = metadata !{i64 486}
!487 = metadata !{i64 487}
!488 = metadata !{i64 488}
!489 = metadata !{i64 489}
!490 = metadata !{i64 490}
!491 = metadata !{i64 491}
!492 = metadata !{i64 492}
!493 = metadata !{i64 493}
!494 = metadata !{i64 494}
!495 = metadata !{i64 495}
!496 = metadata !{i64 496}
